                                      1 ;--------------------------------------------------------
                                      2 ; File Created by SDCC : free open source ISO C Compiler 
                                      3 ; Version 4.3.2 #14228 (MINGW64)
                                      4 ;--------------------------------------------------------
                                      5 	.module Font
                                      6 	.optsdcc -msm83
                                      7 	
                                      8 ;--------------------------------------------------------
                                      9 ; Public variables in this module
                                     10 ;--------------------------------------------------------
                                     11 	.globl b___func_Font
                                     12 	.globl ___func_Font
                                     13 	.globl _fill_win_rect
                                     14 	.globl _init_win
                                     15 	.globl _set_win_tile_xy
                                     16 	.globl _set_win_tiles
                                     17 	.globl _vsync
                                     18 	.globl _DIALOG_DELAY
                                     19 	.globl _keys
                                     20 	.globl _previous_keys
                                     21 	.globl _Font_tiles
                                     22 	.globl _Font_symbols
                                     23 	.globl _dialog_print
                                     24 ;--------------------------------------------------------
                                     25 ; special function registers
                                     26 ;--------------------------------------------------------
                                     27 ;--------------------------------------------------------
                                     28 ; ram data
                                     29 ;--------------------------------------------------------
                                     30 	.area _DATA
                                     31 ;--------------------------------------------------------
                                     32 ; ram data
                                     33 ;--------------------------------------------------------
                                     34 	.area _INITIALIZED
      000000                         35 _previous_keys::
      000000                         36 	.ds 1
      000001                         37 _keys::
      000001                         38 	.ds 1
      000002                         39 _DIALOG_DELAY::
      000002                         40 	.ds 1
                                     41 ;--------------------------------------------------------
                                     42 ; absolute external ram data
                                     43 ;--------------------------------------------------------
                                     44 	.area _DABS (ABS)
                                     45 ;--------------------------------------------------------
                                     46 ; global & static initialisations
                                     47 ;--------------------------------------------------------
                                     48 	.area _HOME
                                     49 	.area _GSINIT
                                     50 	.area _GSFINAL
                                     51 	.area _GSINIT
                                     52 ;--------------------------------------------------------
                                     53 ; Home
                                     54 ;--------------------------------------------------------
                                     55 	.area _HOME
                                     56 	.area _HOME
                                     57 ;--------------------------------------------------------
                                     58 ; code
                                     59 ;--------------------------------------------------------
                                     60 	.area _CODE
                                     61 ;src/Font.c:12: BANKREF(Font)
                                     62 ;	---------------------------------
                                     63 ; Function __func_Font
                                     64 ; ---------------------------------
                           000000    65 	b___func_Font	= 0
      000000                         66 ___func_Font::
                                     67 	.local b___func_Font 
                           000000    68 	___bank_Font = b___func_Font 
                                     69 	.globl ___bank_Font 
                                     70 ;src/Font.c:138: void dialog_print(unsigned char *text, uint8_t size)
                                     71 ;	---------------------------------
                                     72 ; Function dialog_print
                                     73 ; ---------------------------------
      000000                         74 _dialog_print::
      000000 E8 F8            [16]   75 	add	sp, #-8
      000002 F8 03            [12]   76 	ldhl	sp,	#3
      000004 73               [ 8]   77 	ld	(hl), e
      000005 23               [ 8]   78 	inc	hl
      000006 72               [ 8]   79 	ld	(hl), d
      000007 2B               [ 8]   80 	dec	hl
      000008 2B               [ 8]   81 	dec	hl
      000009 77               [ 8]   82 	ld	(hl), a
                                     83 ;src/Font.c:140: init_win(0xCC);//wipe the screen
      00000A 3E CC            [ 8]   84 	ld	a, #0xcc
      00000C F5               [16]   85 	push	af
      00000D 33               [ 8]   86 	inc	sp
      00000E CDr00r00         [24]   87 	call	_init_win
      000011 33               [ 8]   88 	inc	sp
                                     89 ;src/Font.c:141: set_win_tiles(0,0,20,6,Dialog_Border_map);//throw up a fresh border
      000012 11r00r00         [12]   90 	ld	de, #_Dialog_Border_map
      000015 D5               [16]   91 	push	de
      000016 21 14 06         [12]   92 	ld	hl, #0x614
      000019 E5               [16]   93 	push	hl
      00001A AF               [ 4]   94 	xor	a, a
      00001B 0F               [ 4]   95 	rrca
      00001C F5               [16]   96 	push	af
      00001D CDr00r00         [24]   97 	call	_set_win_tiles
      000020 E8 06            [16]   98 	add	sp, #6
                                     99 ;src/Font.c:142: SHOW_WIN;//display to the world
      000022 F0r00            [12]  100 	ldh	a, (_LCDC_REG + 0)
      000024 F6 20            [ 8]  101 	or	a, #0x20
      000026 E0r00            [12]  102 	ldh	(_LCDC_REG + 0), a
                                    103 ;src/Font.c:145: uint8_t y = 160;
      000028 0E A0            [ 8]  104 	ld	c, #0xa0
                                    105 ;src/Font.c:146: while (y > 96) {
      00002A                        106 00101$:
      00002A 3E 60            [ 8]  107 	ld	a, #0x60
      00002C 91               [ 4]  108 	sub	a, c
      00002D 30 10            [12]  109 	jr	NC, 00103$
                                    110 ;x:\gbdk\include\gb\gb.h:1656: WX_REG=x, WY_REG=y;
      00002F 3E 07            [ 8]  111 	ld	a, #0x07
      000031 E0r00            [12]  112 	ldh	(_WX_REG + 0), a
      000033 79               [ 4]  113 	ld	a, c
      000034 E0r00            [12]  114 	ldh	(_WY_REG + 0), a
                                    115 ;src/Font.c:148: y-=3;//the means the window could end up in the wrong spot, we correct that below
      000036 79               [ 4]  116 	ld	a, c
      000037 C6 FD            [ 8]  117 	add	a, #0xfd
      000039 4F               [ 4]  118 	ld	c, a
                                    119 ;src/Font.c:150: vsync();
      00003A CDr00r00         [24]  120 	call	_vsync
      00003D 18 EB            [12]  121 	jr	00101$
      00003F                        122 00103$:
                                    123 ;x:\gbdk\include\gb\gb.h:1656: WX_REG=x, WY_REG=y;
      00003F 3E 07            [ 8]  124 	ld	a, #0x07
      000041 E0r00            [12]  125 	ldh	(_WX_REG + 0), a
      000043 3E 60            [ 8]  126 	ld	a, #0x60
      000045 E0r00            [12]  127 	ldh	(_WY_REG + 0), a
                                    128 ;src/Font.c:156: if (playerY > 84) {
      000047 21r00r00         [12]  129 	ld	hl, #_playerY
      00004A 5E               [ 8]  130 	ld	e, (hl)
      00004B 3E 54            [ 8]  131 	ld	a,#0x54
      00004D 57               [ 4]  132 	ld	d,a
      00004E 96               [ 8]  133 	sub	a, (hl)
      00004F CB 7B            [ 8]  134 	bit	7, e
      000051 28 07            [12]  135 	jr	Z, 00292$
      000053 CB 7A            [ 8]  136 	bit	7, d
      000055 20 08            [12]  137 	jr	NZ, 00293$
      000057 BF               [ 4]  138 	cp	a, a
      000058 18 05            [12]  139 	jr	00293$
      00005A                        140 00292$:
      00005A CB 7A            [ 8]  141 	bit	7, d
      00005C 28 01            [12]  142 	jr	Z, 00293$
      00005E 37               [ 4]  143 	scf
      00005F                        144 00293$:
      00005F 30 1A            [12]  145 	jr	NC, 00105$
                                    146 ;src/Font.c:157: move_sprite(0, playerX+8, tempPlayerY+16);
      000061 FAr00r00         [16]  147 	ld	a, (#_playerX)
      000064 C6 08            [ 8]  148 	add	a, #0x08
      000066 4F               [ 4]  149 	ld	c, a
                                    150 ;x:\gbdk\include\gb\gb.h:1877: OAM_item_t * itm = &shadow_OAM[nb];
      000067 21r00r00         [12]  151 	ld	hl, #_shadow_OAM
                                    152 ;x:\gbdk\include\gb\gb.h:1878: itm->y=y, itm->x=x;
      00006A 3E B0            [ 8]  153 	ld	a, #0xb0
      00006C 22               [ 8]  154 	ld	(hl+), a
      00006D 71               [ 8]  155 	ld	(hl), c
                                    156 ;src/Font.c:158: move_sprite(2, playerX+16, tempPlayerY+16);
      00006E FAr00r00         [16]  157 	ld	a, (#_playerX)
      000071 C6 10            [ 8]  158 	add	a, #0x10
      000073 4F               [ 4]  159 	ld	c, a
                                    160 ;x:\gbdk\include\gb\gb.h:1877: OAM_item_t * itm = &shadow_OAM[nb];
      000074 21r08r00         [12]  161 	ld	hl, #(_shadow_OAM + 8)
                                    162 ;x:\gbdk\include\gb\gb.h:1878: itm->y=y, itm->x=x;
      000077 3E B0            [ 8]  163 	ld	a, #0xb0
      000079 22               [ 8]  164 	ld	(hl+), a
      00007A 71               [ 8]  165 	ld	(hl), c
                                    166 ;src/Font.c:158: move_sprite(2, playerX+16, tempPlayerY+16);
      00007B                        167 00105$:
                                    168 ;src/Font.c:162: uint8_t xpos=0, ypos=0;
      00007B F8 05            [12]  169 	ldhl	sp,	#5
      00007D AF               [ 4]  170 	xor	a, a
      00007E 22               [ 8]  171 	ld	(hl+), a
                                    172 ;src/Font.c:164: uint8_t index=0;
      00007F AF               [ 4]  173 	xor	a, a
      000080 22               [ 8]  174 	ld	(hl+), a
      000081 77               [ 8]  175 	ld	(hl), a
                                    176 ;src/Font.c:166: while (index-0<(size-1))
      000082                        177 00117$:
      000082 F8 07            [12]  178 	ldhl	sp,	#7
      000084 4E               [ 8]  179 	ld	c, (hl)
      000085 06 00            [ 8]  180 	ld	b, #0x00
      000087 F8 02            [12]  181 	ldhl	sp,	#2
      000089 6E               [ 8]  182 	ld	l, (hl)
      00008A 26 00            [ 8]  183 	ld	h, #0x00
      00008C 2B               [ 8]  184 	dec	hl
      00008D 5C               [ 4]  185 	ld	e, h
      00008E 50               [ 4]  186 	ld	d, b
      00008F 79               [ 4]  187 	ld	a, c
      000090 95               [ 4]  188 	sub	a, l
      000091 78               [ 4]  189 	ld	a, b
      000092 9C               [ 4]  190 	sbc	a, h
      000093 CB 7B            [ 8]  191 	bit	7, e
      000095 28 07            [12]  192 	jr	Z, 00294$
      000097 CB 7A            [ 8]  193 	bit	7, d
      000099 20 08            [12]  194 	jr	NZ, 00295$
      00009B BF               [ 4]  195 	cp	a, a
      00009C 18 05            [12]  196 	jr	00295$
      00009E                        197 00294$:
      00009E CB 7A            [ 8]  198 	bit	7, d
      0000A0 28 01            [12]  199 	jr	Z, 00295$
      0000A2 37               [ 4]  200 	scf
      0000A3                        201 00295$:
      0000A3 D2r60r01         [16]  202 	jp	NC, 00119$
                                    203 ;src/Font.c:169: if (xpos % DIALOG_WIDTH == 0) {xpos=1; ypos++;}
      0000A6 F8 05            [12]  204 	ldhl	sp,	#5
      0000A8 7E               [ 8]  205 	ld	a, (hl)
      0000A9 F8 00            [12]  206 	ldhl	sp,	#0
      0000AB 22               [ 8]  207 	ld	(hl+), a
      0000AC 01 12 00         [12]  208 	ld	bc, #0x0012
      0000AF 70               [ 8]  209 	ld	(hl), b
      0000B0 D1               [12]  210 	pop	de
      0000B1 D5               [16]  211 	push	de
      0000B2 CDr00r00         [24]  212 	call	__modsint
      0000B5 59               [ 4]  213 	ld	e, c
      0000B6 78               [ 4]  214 	ld	a, b
      0000B7 B3               [ 4]  215 	or	a, e
      0000B8 20 08            [12]  216 	jr	NZ, 00107$
      0000BA F8 05            [12]  217 	ldhl	sp,	#5
      0000BC 3E 01            [ 8]  218 	ld	a, #0x01
      0000BE 22               [ 8]  219 	ld	(hl+), a
      0000BF 34               [12]  220 	inc	(hl)
      0000C0 18 03            [12]  221 	jr	00108$
      0000C2                        222 00107$:
                                    223 ;src/Font.c:170: else xpos++;
      0000C2 F8 05            [12]  224 	ldhl	sp,	#5
      0000C4 34               [12]  225 	inc	(hl)
      0000C5                        226 00108$:
                                    227 ;src/Font.c:173: (xpos == 1 && text[index] == ' ')?index++:index;
      0000C5 F8 05            [12]  228 	ldhl	sp,	#5
      0000C7 7E               [ 8]  229 	ld	a, (hl)
      0000C8 3D               [ 4]  230 	dec	a
      0000C9 20 15            [12]  231 	jr	NZ, 00142$
      0000CB F8 03            [12]  232 	ldhl	sp,#3
      0000CD 2A               [ 8]  233 	ld	a, (hl+)
      0000CE 5F               [ 4]  234 	ld	e, a
      0000CF 56               [ 8]  235 	ld	d, (hl)
      0000D0 F8 07            [12]  236 	ldhl	sp,	#7
      0000D2 6E               [ 8]  237 	ld	l, (hl)
      0000D3 26 00            [ 8]  238 	ld	h, #0x00
      0000D5 19               [ 8]  239 	add	hl, de
      0000D6 4D               [ 4]  240 	ld	c, l
      0000D7 44               [ 4]  241 	ld	b, h
      0000D8 0A               [ 8]  242 	ld	a, (bc)
      0000D9 D6 20            [ 8]  243 	sub	a, #0x20
      0000DB 20 03            [12]  244 	jr	NZ, 00142$
      0000DD F8 07            [12]  245 	ldhl	sp,	#7
      0000DF 34               [12]  246 	inc	(hl)
      0000E0                        247 00142$:
                                    248 ;src/Font.c:182: const unsigned char *current = &text[index];
      0000E0 F8 03            [12]  249 	ldhl	sp,#3
      0000E2 2A               [ 8]  250 	ld	a, (hl+)
      0000E3 5F               [ 4]  251 	ld	e, a
      0000E4 56               [ 8]  252 	ld	d, (hl)
      0000E5 F8 07            [12]  253 	ldhl	sp,	#7
      0000E7 6E               [ 8]  254 	ld	l, (hl)
      0000E8 26 00            [ 8]  255 	ld	h, #0x00
      0000EA 19               [ 8]  256 	add	hl, de
      0000EB 4D               [ 4]  257 	ld	c, l
      0000EC 44               [ 4]  258 	ld	b, h
                                    259 ;src/Font.c:186: if (ypos > DIALOG_HEIGHT) {
      0000ED 3E 04            [ 8]  260 	ld	a, #0x04
      0000EF F8 06            [12]  261 	ldhl	sp,	#6
      0000F1 96               [ 8]  262 	sub	a, (hl)
      0000F2 30 18            [12]  263 	jr	NC, 00110$
                                    264 ;src/Font.c:193: fill_win_rect(DIALOG_INIT_X, DIALOG_INIT_Y, DIALOG_WIDTH, DIALOG_HEIGHT, 0xCC);
      0000F4 21 04 CC         [12]  265 	ld	hl, #0xcc04
      0000F7 E5               [16]  266 	push	hl
      0000F8 21 01 12         [12]  267 	ld	hl, #0x1201
      0000FB E5               [16]  268 	push	hl
      0000FC 3E 01            [ 8]  269 	ld	a, #0x01
      0000FE F5               [16]  270 	push	af
      0000FF 33               [ 8]  271 	inc	sp
      000100 CDr00r00         [24]  272 	call	_fill_win_rect
      000103 E8 05            [16]  273 	add	sp, #5
                                    274 ;src/Font.c:194: xpos=ypos=1;
      000105 F8 06            [12]  275 	ldhl	sp,	#6
      000107 3E 01            [ 8]  276 	ld	a, #0x01
      000109 32               [ 8]  277 	ld	(hl-), a
      00010A 36 01            [12]  278 	ld	(hl), #0x01
      00010C                        279 00110$:
                                    280 ;src/Font.c:198: if (*current != ' ') set_win_tile_xy(xpos, ypos, (*current-0x47+Font_sprite_start));
      00010C 0A               [ 8]  281 	ld	a, (bc)
      00010D FE 20            [ 8]  282 	cp	a, #0x20
      00010F 28 0F            [12]  283 	jr	Z, 00170$
      000111 C6 85            [ 8]  284 	add	a, #0x85
      000113 F5               [16]  285 	push	af
      000114 33               [ 8]  286 	inc	sp
      000115 F8 07            [12]  287 	ldhl	sp,	#7
      000117 3A               [ 8]  288 	ld	a, (hl-)
      000118 57               [ 4]  289 	ld	d, a
      000119 5E               [ 8]  290 	ld	e, (hl)
      00011A D5               [16]  291 	push	de
      00011B CDr00r00         [24]  292 	call	_set_win_tile_xy
      00011E E8 03            [16]  293 	add	sp, #3
                                    294 ;src/Font.c:201: for (uint8_t i=0; i<(sizeof(Font_symbols)); i++)
      000120                        295 00170$:
      000120 1E 00            [ 8]  296 	ld	e, #0x00
      000122                        297 00134$:
      000122 7B               [ 4]  298 	ld	a, e
      000123 D6 19            [ 8]  299 	sub	a, #0x19
      000125 30 24            [12]  300 	jr	NC, 00115$
                                    301 ;src/Font.c:202: if (*current == Font_symbols[i]) set_win_tile_xy(xpos, ypos, (*current-0x20+Font_sprite_start));
      000127 0A               [ 8]  302 	ld	a, (bc)
      000128 57               [ 4]  303 	ld	d, a
      000129 3ErC5            [ 8]  304 	ld	a, #<(_Font_symbols)
      00012B 83               [ 4]  305 	add	a, e
      00012C 6F               [ 4]  306 	ld	l, a
                                    307 ;	spillPairReg hl
                                    308 ;	spillPairReg hl
      00012D 3Es01            [ 8]  309 	ld	a, #>(_Font_symbols)
      00012F CE 00            [ 8]  310 	adc	a, #0x00
      000131 67               [ 4]  311 	ld	h, a
                                    312 ;	spillPairReg hl
                                    313 ;	spillPairReg hl
      000132 6E               [ 8]  314 	ld	l, (hl)
                                    315 ;	spillPairReg hl
      000133 7A               [ 4]  316 	ld	a,d
      000134 BD               [ 4]  317 	cp	a,l
      000135 20 11            [12]  318 	jr	NZ, 00135$
      000137 C6 AC            [ 8]  319 	add	a, #0xac
      000139 D5               [16]  320 	push	de
      00013A F5               [16]  321 	push	af
      00013B 33               [ 8]  322 	inc	sp
      00013C F8 09            [12]  323 	ldhl	sp,	#9
      00013E 3A               [ 8]  324 	ld	a, (hl-)
      00013F 57               [ 4]  325 	ld	d, a
      000140 5E               [ 8]  326 	ld	e, (hl)
      000141 D5               [16]  327 	push	de
      000142 CDr00r00         [24]  328 	call	_set_win_tile_xy
      000145 E8 03            [16]  329 	add	sp, #3
      000147 D1               [12]  330 	pop	de
      000148                        331 00135$:
                                    332 ;src/Font.c:201: for (uint8_t i=0; i<(sizeof(Font_symbols)); i++)
      000148 1C               [ 4]  333 	inc	e
      000149 18 D7            [12]  334 	jr	00134$
      00014B                        335 00115$:
                                    336 ;src/Font.c:204: VBlankDelay(DIALOG_DELAY);
      00014B 0E 00            [ 8]  337 	ld	c, #0x00
      00014D                        338 00137$:
      00014D 79               [ 4]  339 	ld	a, c
      00014E 21r02r00         [12]  340 	ld	hl, #_DIALOG_DELAY
      000151 96               [ 8]  341 	sub	a, (hl)
      000152 30 06            [12]  342 	jr	NC, 00116$
      000154 CDr00r00         [24]  343 	call	_vsync
      000157 0C               [ 4]  344 	inc	c
      000158 18 F3            [12]  345 	jr	00137$
      00015A                        346 00116$:
                                    347 ;src/Font.c:206: index++;
      00015A F8 07            [12]  348 	ldhl	sp,	#7
      00015C 34               [12]  349 	inc	(hl)
      00015D C3r82r00         [16]  350 	jp	00117$
      000160                        351 00119$:
                                    352 ;src/Font.c:216: if (playerY > 84) {
      000160 21r00r00         [12]  353 	ld	hl, #_playerY
      000163 5E               [ 8]  354 	ld	e, (hl)
      000164 3E 54            [ 8]  355 	ld	a,#0x54
      000166 57               [ 4]  356 	ld	d,a
      000167 96               [ 8]  357 	sub	a, (hl)
      000168 CB 7B            [ 8]  358 	bit	7, e
      00016A 28 07            [12]  359 	jr	Z, 00303$
      00016C CB 7A            [ 8]  360 	bit	7, d
      00016E 20 08            [12]  361 	jr	NZ, 00304$
      000170 BF               [ 4]  362 	cp	a, a
      000171 18 05            [12]  363 	jr	00304$
      000173                        364 00303$:
      000173 CB 7A            [ 8]  365 	bit	7, d
      000175 28 01            [12]  366 	jr	Z, 00304$
      000177 37               [ 4]  367 	scf
      000178                        368 00304$:
      000178 30 24            [12]  369 	jr	NC, 00121$
                                    370 ;src/Font.c:217: move_sprite(0, playerX+8, playerY+16);
      00017A FAr00r00         [16]  371 	ld	a, (#_playerY)
      00017D C6 10            [ 8]  372 	add	a, #0x10
      00017F 4F               [ 4]  373 	ld	c, a
      000180 FAr00r00         [16]  374 	ld	a, (#_playerX)
      000183 C6 08            [ 8]  375 	add	a, #0x08
      000185 47               [ 4]  376 	ld	b, a
                                    377 ;x:\gbdk\include\gb\gb.h:1877: OAM_item_t * itm = &shadow_OAM[nb];
      000186 21r00r00         [12]  378 	ld	hl, #_shadow_OAM
                                    379 ;x:\gbdk\include\gb\gb.h:1878: itm->y=y, itm->x=x;
      000189 79               [ 4]  380 	ld	a, c
      00018A 22               [ 8]  381 	ld	(hl+), a
      00018B 70               [ 8]  382 	ld	(hl), b
                                    383 ;src/Font.c:218: move_sprite(2, playerX+16, playerY+16);
      00018C FAr00r00         [16]  384 	ld	a, (#_playerY)
      00018F C6 10            [ 8]  385 	add	a, #0x10
      000191 4F               [ 4]  386 	ld	c, a
      000192 FAr00r00         [16]  387 	ld	a, (#_playerX)
      000195 C6 10            [ 8]  388 	add	a, #0x10
      000197 47               [ 4]  389 	ld	b, a
                                    390 ;x:\gbdk\include\gb\gb.h:1877: OAM_item_t * itm = &shadow_OAM[nb];
      000198 21r08r00         [12]  391 	ld	hl, #(_shadow_OAM + 8)
                                    392 ;x:\gbdk\include\gb\gb.h:1878: itm->y=y, itm->x=x;
      00019B 79               [ 4]  393 	ld	a, c
      00019C 22               [ 8]  394 	ld	(hl+), a
      00019D 70               [ 8]  395 	ld	(hl), b
                                    396 ;src/Font.c:218: move_sprite(2, playerX+16, playerY+16);
      00019E                        397 00121$:
                                    398 ;src/Font.c:222: y = 96;
      00019E 0E 60            [ 8]  399 	ld	c, #0x60
                                    400 ;src/Font.c:223: while (y < 160) {
      0001A0                        401 00122$:
      0001A0 79               [ 4]  402 	ld	a, c
      0001A1 D6 A0            [ 8]  403 	sub	a, #0xa0
      0001A3 30 0F            [12]  404 	jr	NC, 00124$
                                    405 ;x:\gbdk\include\gb\gb.h:1656: WX_REG=x, WY_REG=y;
      0001A5 3E 07            [ 8]  406 	ld	a, #0x07
      0001A7 E0r00            [12]  407 	ldh	(_WX_REG + 0), a
      0001A9 79               [ 4]  408 	ld	a, c
      0001AA E0r00            [12]  409 	ldh	(_WY_REG + 0), a
                                    410 ;src/Font.c:225: y+=3;
      0001AC 0C               [ 4]  411 	inc	c
      0001AD 0C               [ 4]  412 	inc	c
      0001AE 0C               [ 4]  413 	inc	c
                                    414 ;src/Font.c:227: vsync();
      0001AF CDr00r00         [24]  415 	call	_vsync
      0001B2 18 EC            [12]  416 	jr	00122$
      0001B4                        417 00124$:
                                    418 ;x:\gbdk\include\gb\gb.h:1656: WX_REG=x, WY_REG=y;
      0001B4 3E 07            [ 8]  419 	ld	a, #0x07
      0001B6 E0r00            [12]  420 	ldh	(_WX_REG + 0), a
      0001B8 3E A0            [ 8]  421 	ld	a, #0xa0
      0001BA E0r00            [12]  422 	ldh	(_WY_REG + 0), a
                                    423 ;src/Font.c:230: HIDE_WIN;
      0001BC F0r00            [12]  424 	ldh	a, (_LCDC_REG + 0)
      0001BE E6 DF            [ 8]  425 	and	a, #0xdf
      0001C0 E0r00            [12]  426 	ldh	(_LCDC_REG + 0), a
                                    427 ;src/Font.c:231: }
      0001C2 E8 08            [16]  428 	add	sp, #8
      0001C4 C9               [16]  429 	ret
      0001C5                        430 _Font_symbols:
      0001C5 21                     431 	.db #0x21	; 33
      0001C6 22                     432 	.db #0x22	; 34
      0001C7 23                     433 	.db #0x23	; 35
      0001C8 24                     434 	.db #0x24	; 36
      0001C9 25                     435 	.db #0x25	; 37
      0001CA 26                     436 	.db #0x26	; 38
      0001CB 27                     437 	.db #0x27	; 39
      0001CC 28                     438 	.db #0x28	; 40
      0001CD 29                     439 	.db #0x29	; 41
      0001CE 2A                     440 	.db #0x2a	; 42
      0001CF 2B                     441 	.db #0x2b	; 43
      0001D0 2C                     442 	.db #0x2c	; 44
      0001D1 2D                     443 	.db #0x2d	; 45
      0001D2 2E                     444 	.db #0x2e	; 46
      0001D3 2F                     445 	.db #0x2f	; 47
      0001D4 30                     446 	.db #0x30	; 48	'0'
      0001D5 31                     447 	.db #0x31	; 49	'1'
      0001D6 32                     448 	.db #0x32	; 50	'2'
      0001D7 33                     449 	.db #0x33	; 51	'3'
      0001D8 34                     450 	.db #0x34	; 52	'4'
      0001D9 35                     451 	.db #0x35	; 53	'5'
      0001DA 36                     452 	.db #0x36	; 54	'6'
      0001DB 37                     453 	.db #0x37	; 55	'7'
      0001DC 38                     454 	.db #0x38	; 56	'8'
      0001DD 39                     455 	.db #0x39	; 57	'9'
      0001DE                        456 _Font_tiles:
      0001DE FF                     457 	.db #0xff	; 255
      0001DF FF                     458 	.db #0xff	; 255
      0001E0 FF                     459 	.db #0xff	; 255
      0001E1 FF                     460 	.db #0xff	; 255
      0001E2 FF                     461 	.db #0xff	; 255
      0001E3 FF                     462 	.db #0xff	; 255
      0001E4 FF                     463 	.db #0xff	; 255
      0001E5 FF                     464 	.db #0xff	; 255
      0001E6 FF                     465 	.db #0xff	; 255
      0001E7 FF                     466 	.db #0xff	; 255
      0001E8 FF                     467 	.db #0xff	; 255
      0001E9 FF                     468 	.db #0xff	; 255
      0001EA FF                     469 	.db #0xff	; 255
      0001EB FF                     470 	.db #0xff	; 255
      0001EC FF                     471 	.db #0xff	; 255
      0001ED FF                     472 	.db #0xff	; 255
      0001EE 9F                     473 	.db #0x9f	; 159
      0001EF 9F                     474 	.db #0x9f	; 159
      0001F0 9F                     475 	.db #0x9f	; 159
      0001F1 9F                     476 	.db #0x9f	; 159
      0001F2 9F                     477 	.db #0x9f	; 159
      0001F3 9F                     478 	.db #0x9f	; 159
      0001F4 9F                     479 	.db #0x9f	; 159
      0001F5 9F                     480 	.db #0x9f	; 159
      0001F6 BF                     481 	.db #0xbf	; 191
      0001F7 BF                     482 	.db #0xbf	; 191
      0001F8 FF                     483 	.db #0xff	; 255
      0001F9 FF                     484 	.db #0xff	; 255
      0001FA BF                     485 	.db #0xbf	; 191
      0001FB BF                     486 	.db #0xbf	; 191
      0001FC FF                     487 	.db #0xff	; 255
      0001FD FF                     488 	.db #0xff	; 255
      0001FE D7                     489 	.db #0xd7	; 215
      0001FF D7                     490 	.db #0xd7	; 215
      000200 D7                     491 	.db #0xd7	; 215
      000201 D7                     492 	.db #0xd7	; 215
      000202 FF                     493 	.db #0xff	; 255
      000203 FF                     494 	.db #0xff	; 255
      000204 FF                     495 	.db #0xff	; 255
      000205 FF                     496 	.db #0xff	; 255
      000206 FF                     497 	.db #0xff	; 255
      000207 FF                     498 	.db #0xff	; 255
      000208 FF                     499 	.db #0xff	; 255
      000209 FF                     500 	.db #0xff	; 255
      00020A FF                     501 	.db #0xff	; 255
      00020B FF                     502 	.db #0xff	; 255
      00020C FF                     503 	.db #0xff	; 255
      00020D FF                     504 	.db #0xff	; 255
      00020E FF                     505 	.db #0xff	; 255
      00020F FF                     506 	.db #0xff	; 255
      000210 FF                     507 	.db #0xff	; 255
      000211 FF                     508 	.db #0xff	; 255
      000212 FF                     509 	.db #0xff	; 255
      000213 FF                     510 	.db #0xff	; 255
      000214 FF                     511 	.db #0xff	; 255
      000215 FF                     512 	.db #0xff	; 255
      000216 FF                     513 	.db #0xff	; 255
      000217 FF                     514 	.db #0xff	; 255
      000218 FF                     515 	.db #0xff	; 255
      000219 FF                     516 	.db #0xff	; 255
      00021A 57                     517 	.db #0x57	; 87	'W'
      00021B 57                     518 	.db #0x57	; 87	'W'
      00021C FF                     519 	.db #0xff	; 255
      00021D FF                     520 	.db #0xff	; 255
      00021E EF                     521 	.db #0xef	; 239
      00021F C3                     522 	.db #0xc3	; 195
      000220 DD                     523 	.db #0xdd	; 221
      000221 81                     524 	.db #0x81	; 129
      000222 A3                     525 	.db #0xa3	; 163
      000223 1C                     526 	.db #0x1c	; 28
      000224 56                     527 	.db #0x56	; 86	'V'
      000225 20                     528 	.db #0x20	; 32
      000226 E5                     529 	.db #0xe5	; 229
      000227 18                     530 	.db #0x18	; 24
      000228 DB                     531 	.db #0xdb	; 219
      000229 04                     532 	.db #0x04	; 4
      00022A 87                     533 	.db #0x87	; 135
      00022B B9                     534 	.db #0xb9	; 185
      00022C EF                     535 	.db #0xef	; 239
      00022D C3                     536 	.db #0xc3	; 195
      00022E FF                     537 	.db #0xff	; 255
      00022F FF                     538 	.db #0xff	; 255
      000230 9D                     539 	.db #0x9d	; 157
      000231 9D                     540 	.db #0x9d	; 157
      000232 9B                     541 	.db #0x9b	; 155
      000233 9B                     542 	.db #0x9b	; 155
      000234 F7                     543 	.db #0xf7	; 247
      000235 F7                     544 	.db #0xf7	; 247
      000236 EF                     545 	.db #0xef	; 239
      000237 EF                     546 	.db #0xef	; 239
      000238 D9                     547 	.db #0xd9	; 217
      000239 D9                     548 	.db #0xd9	; 217
      00023A B9                     549 	.db #0xb9	; 185
      00023B B9                     550 	.db #0xb9	; 185
      00023C FF                     551 	.db #0xff	; 255
      00023D FF                     552 	.db #0xff	; 255
      00023E FF                     553 	.db #0xff	; 255
      00023F FF                     554 	.db #0xff	; 255
      000240 FF                     555 	.db #0xff	; 255
      000241 FF                     556 	.db #0xff	; 255
      000242 FF                     557 	.db #0xff	; 255
      000243 FF                     558 	.db #0xff	; 255
      000244 C1                     559 	.db #0xc1	; 193
      000245 FF                     560 	.db #0xff	; 255
      000246 E3                     561 	.db #0xe3	; 227
      000247 DD                     562 	.db #0xdd	; 221
      000248 D5                     563 	.db #0xd5	; 213
      000249 C9                     564 	.db #0xc9	; 201
      00024A EB                     565 	.db #0xeb	; 235
      00024B E3                     566 	.db #0xe3	; 227
      00024C F7                     567 	.db #0xf7	; 247
      00024D F7                     568 	.db #0xf7	; 247
      00024E EF                     569 	.db #0xef	; 239
      00024F EF                     570 	.db #0xef	; 239
      000250 EF                     571 	.db #0xef	; 239
      000251 EF                     572 	.db #0xef	; 239
      000252 FF                     573 	.db #0xff	; 255
      000253 FF                     574 	.db #0xff	; 255
      000254 FF                     575 	.db #0xff	; 255
      000255 FF                     576 	.db #0xff	; 255
      000256 FF                     577 	.db #0xff	; 255
      000257 FF                     578 	.db #0xff	; 255
      000258 FF                     579 	.db #0xff	; 255
      000259 FF                     580 	.db #0xff	; 255
      00025A FF                     581 	.db #0xff	; 255
      00025B FF                     582 	.db #0xff	; 255
      00025C FF                     583 	.db #0xff	; 255
      00025D FF                     584 	.db #0xff	; 255
      00025E FB                     585 	.db #0xfb	; 251
      00025F FB                     586 	.db #0xfb	; 251
      000260 F7                     587 	.db #0xf7	; 247
      000261 F7                     588 	.db #0xf7	; 247
      000262 F7                     589 	.db #0xf7	; 247
      000263 F7                     590 	.db #0xf7	; 247
      000264 F7                     591 	.db #0xf7	; 247
      000265 F7                     592 	.db #0xf7	; 247
      000266 F7                     593 	.db #0xf7	; 247
      000267 F7                     594 	.db #0xf7	; 247
      000268 F7                     595 	.db #0xf7	; 247
      000269 F7                     596 	.db #0xf7	; 247
      00026A FB                     597 	.db #0xfb	; 251
      00026B FB                     598 	.db #0xfb	; 251
      00026C FF                     599 	.db #0xff	; 255
      00026D FF                     600 	.db #0xff	; 255
      00026E DF                     601 	.db #0xdf	; 223
      00026F DF                     602 	.db #0xdf	; 223
      000270 EF                     603 	.db #0xef	; 239
      000271 EF                     604 	.db #0xef	; 239
      000272 EF                     605 	.db #0xef	; 239
      000273 EF                     606 	.db #0xef	; 239
      000274 EF                     607 	.db #0xef	; 239
      000275 EF                     608 	.db #0xef	; 239
      000276 EF                     609 	.db #0xef	; 239
      000277 EF                     610 	.db #0xef	; 239
      000278 EF                     611 	.db #0xef	; 239
      000279 EF                     612 	.db #0xef	; 239
      00027A DF                     613 	.db #0xdf	; 223
      00027B DF                     614 	.db #0xdf	; 223
      00027C FF                     615 	.db #0xff	; 255
      00027D FF                     616 	.db #0xff	; 255
      00027E FF                     617 	.db #0xff	; 255
      00027F FF                     618 	.db #0xff	; 255
      000280 C3                     619 	.db #0xc3	; 195
      000281 C3                     620 	.db #0xc3	; 195
      000282 C3                     621 	.db #0xc3	; 195
      000283 C1                     622 	.db #0xc1	; 193
      000284 C2                     623 	.db #0xc2	; 194
      000285 C1                     624 	.db #0xc1	; 193
      000286 C2                     625 	.db #0xc2	; 194
      000287 C1                     626 	.db #0xc1	; 193
      000288 FE                     627 	.db #0xfe	; 254
      000289 E1                     628 	.db #0xe1	; 225
      00028A F0                     629 	.db #0xf0	; 240
      00028B FF                     630 	.db #0xff	; 255
      00028C FF                     631 	.db #0xff	; 255
      00028D FF                     632 	.db #0xff	; 255
      00028E FF                     633 	.db #0xff	; 255
      00028F FF                     634 	.db #0xff	; 255
      000290 E7                     635 	.db #0xe7	; 231
      000291 E7                     636 	.db #0xe7	; 231
      000292 E7                     637 	.db #0xe7	; 231
      000293 E7                     638 	.db #0xe7	; 231
      000294 81                     639 	.db #0x81	; 129
      000295 81                     640 	.db #0x81	; 129
      000296 E7                     641 	.db #0xe7	; 231
      000297 E7                     642 	.db #0xe7	; 231
      000298 E7                     643 	.db #0xe7	; 231
      000299 E7                     644 	.db #0xe7	; 231
      00029A FF                     645 	.db #0xff	; 255
      00029B FF                     646 	.db #0xff	; 255
      00029C FF                     647 	.db #0xff	; 255
      00029D FF                     648 	.db #0xff	; 255
      00029E FF                     649 	.db #0xff	; 255
      00029F FF                     650 	.db #0xff	; 255
      0002A0 FF                     651 	.db #0xff	; 255
      0002A1 FF                     652 	.db #0xff	; 255
      0002A2 FF                     653 	.db #0xff	; 255
      0002A3 FF                     654 	.db #0xff	; 255
      0002A4 FF                     655 	.db #0xff	; 255
      0002A5 FF                     656 	.db #0xff	; 255
      0002A6 DF                     657 	.db #0xdf	; 223
      0002A7 DF                     658 	.db #0xdf	; 223
      0002A8 DF                     659 	.db #0xdf	; 223
      0002A9 DF                     660 	.db #0xdf	; 223
      0002AA BF                     661 	.db #0xbf	; 191
      0002AB BF                     662 	.db #0xbf	; 191
      0002AC FF                     663 	.db #0xff	; 255
      0002AD FF                     664 	.db #0xff	; 255
      0002AE FF                     665 	.db #0xff	; 255
      0002AF FF                     666 	.db #0xff	; 255
      0002B0 FF                     667 	.db #0xff	; 255
      0002B1 FF                     668 	.db #0xff	; 255
      0002B2 FF                     669 	.db #0xff	; 255
      0002B3 FF                     670 	.db #0xff	; 255
      0002B4 81                     671 	.db #0x81	; 129
      0002B5 81                     672 	.db #0x81	; 129
      0002B6 FF                     673 	.db #0xff	; 255
      0002B7 FF                     674 	.db #0xff	; 255
      0002B8 FF                     675 	.db #0xff	; 255
      0002B9 FF                     676 	.db #0xff	; 255
      0002BA FF                     677 	.db #0xff	; 255
      0002BB FF                     678 	.db #0xff	; 255
      0002BC FF                     679 	.db #0xff	; 255
      0002BD FF                     680 	.db #0xff	; 255
      0002BE FF                     681 	.db #0xff	; 255
      0002BF FF                     682 	.db #0xff	; 255
      0002C0 FF                     683 	.db #0xff	; 255
      0002C1 FF                     684 	.db #0xff	; 255
      0002C2 FF                     685 	.db #0xff	; 255
      0002C3 FF                     686 	.db #0xff	; 255
      0002C4 FF                     687 	.db #0xff	; 255
      0002C5 FF                     688 	.db #0xff	; 255
      0002C6 FF                     689 	.db #0xff	; 255
      0002C7 FF                     690 	.db #0xff	; 255
      0002C8 9F                     691 	.db #0x9f	; 159
      0002C9 9F                     692 	.db #0x9f	; 159
      0002CA 9F                     693 	.db #0x9f	; 159
      0002CB 9F                     694 	.db #0x9f	; 159
      0002CC FF                     695 	.db #0xff	; 255
      0002CD FF                     696 	.db #0xff	; 255
      0002CE C7                     697 	.db #0xc7	; 199
      0002CF C7                     698 	.db #0xc7	; 199
      0002D0 01                     699 	.db #0x01	; 1
      0002D1 01                     700 	.db #0x01	; 1
      0002D2 39                     701 	.db #0x39	; 57	'9'
      0002D3 39                     702 	.db #0x39	; 57	'9'
      0002D4 FB                     703 	.db #0xfb	; 251
      0002D5 FB                     704 	.db #0xfb	; 251
      0002D6 E7                     705 	.db #0xe7	; 231
      0002D7 E7                     706 	.db #0xe7	; 231
      0002D8 E7                     707 	.db #0xe7	; 231
      0002D9 E7                     708 	.db #0xe7	; 231
      0002DA FF                     709 	.db #0xff	; 255
      0002DB FF                     710 	.db #0xff	; 255
      0002DC E7                     711 	.db #0xe7	; 231
      0002DD E7                     712 	.db #0xe7	; 231
      0002DE C3                     713 	.db #0xc3	; 195
      0002DF C3                     714 	.db #0xc3	; 195
      0002E0 B9                     715 	.db #0xb9	; 185
      0002E1 B9                     716 	.db #0xb9	; 185
      0002E2 B5                     717 	.db #0xb5	; 181
      0002E3 B5                     718 	.db #0xb5	; 181
      0002E4 AD                     719 	.db #0xad	; 173
      0002E5 AD                     720 	.db #0xad	; 173
      0002E6 AD                     721 	.db #0xad	; 173
      0002E7 AD                     722 	.db #0xad	; 173
      0002E8 9D                     723 	.db #0x9d	; 157
      0002E9 9D                     724 	.db #0x9d	; 157
      0002EA C3                     725 	.db #0xc3	; 195
      0002EB C3                     726 	.db #0xc3	; 195
      0002EC FF                     727 	.db #0xff	; 255
      0002ED FF                     728 	.db #0xff	; 255
      0002EE E7                     729 	.db #0xe7	; 231
      0002EF E7                     730 	.db #0xe7	; 231
      0002F0 D7                     731 	.db #0xd7	; 215
      0002F1 D7                     732 	.db #0xd7	; 215
      0002F2 F7                     733 	.db #0xf7	; 247
      0002F3 F7                     734 	.db #0xf7	; 247
      0002F4 F7                     735 	.db #0xf7	; 247
      0002F5 F7                     736 	.db #0xf7	; 247
      0002F6 F7                     737 	.db #0xf7	; 247
      0002F7 F7                     738 	.db #0xf7	; 247
      0002F8 F7                     739 	.db #0xf7	; 247
      0002F9 F7                     740 	.db #0xf7	; 247
      0002FA C3                     741 	.db #0xc3	; 195
      0002FB C3                     742 	.db #0xc3	; 195
      0002FC FF                     743 	.db #0xff	; 255
      0002FD FF                     744 	.db #0xff	; 255
      0002FE C3                     745 	.db #0xc3	; 195
      0002FF C3                     746 	.db #0xc3	; 195
      000300 BD                     747 	.db #0xbd	; 189
      000301 BD                     748 	.db #0xbd	; 189
      000302 FD                     749 	.db #0xfd	; 253
      000303 FD                     750 	.db #0xfd	; 253
      000304 F3                     751 	.db #0xf3	; 243
      000305 F3                     752 	.db #0xf3	; 243
      000306 CF                     753 	.db #0xcf	; 207
      000307 CF                     754 	.db #0xcf	; 207
      000308 BF                     755 	.db #0xbf	; 191
      000309 BF                     756 	.db #0xbf	; 191
      00030A 81                     757 	.db #0x81	; 129
      00030B 81                     758 	.db #0x81	; 129
      00030C FF                     759 	.db #0xff	; 255
      00030D FF                     760 	.db #0xff	; 255
      00030E C3                     761 	.db #0xc3	; 195
      00030F C3                     762 	.db #0xc3	; 195
      000310 BD                     763 	.db #0xbd	; 189
      000311 BD                     764 	.db #0xbd	; 189
      000312 FD                     765 	.db #0xfd	; 253
      000313 FD                     766 	.db #0xfd	; 253
      000314 F3                     767 	.db #0xf3	; 243
      000315 F3                     768 	.db #0xf3	; 243
      000316 FD                     769 	.db #0xfd	; 253
      000317 FD                     770 	.db #0xfd	; 253
      000318 BD                     771 	.db #0xbd	; 189
      000319 BD                     772 	.db #0xbd	; 189
      00031A C3                     773 	.db #0xc3	; 195
      00031B C3                     774 	.db #0xc3	; 195
      00031C FF                     775 	.db #0xff	; 255
      00031D FF                     776 	.db #0xff	; 255
      00031E F3                     777 	.db #0xf3	; 243
      00031F F3                     778 	.db #0xf3	; 243
      000320 EB                     779 	.db #0xeb	; 235
      000321 EB                     780 	.db #0xeb	; 235
      000322 DB                     781 	.db #0xdb	; 219
      000323 DB                     782 	.db #0xdb	; 219
      000324 BB                     783 	.db #0xbb	; 187
      000325 BB                     784 	.db #0xbb	; 187
      000326 81                     785 	.db #0x81	; 129
      000327 81                     786 	.db #0x81	; 129
      000328 FB                     787 	.db #0xfb	; 251
      000329 FB                     788 	.db #0xfb	; 251
      00032A FB                     789 	.db #0xfb	; 251
      00032B FB                     790 	.db #0xfb	; 251
      00032C FF                     791 	.db #0xff	; 255
      00032D FF                     792 	.db #0xff	; 255
      00032E 81                     793 	.db #0x81	; 129
      00032F 81                     794 	.db #0x81	; 129
      000330 BF                     795 	.db #0xbf	; 191
      000331 BF                     796 	.db #0xbf	; 191
      000332 BF                     797 	.db #0xbf	; 191
      000333 BF                     798 	.db #0xbf	; 191
      000334 83                     799 	.db #0x83	; 131
      000335 83                     800 	.db #0x83	; 131
      000336 FD                     801 	.db #0xfd	; 253
      000337 FD                     802 	.db #0xfd	; 253
      000338 FD                     803 	.db #0xfd	; 253
      000339 FD                     804 	.db #0xfd	; 253
      00033A 83                     805 	.db #0x83	; 131
      00033B 83                     806 	.db #0x83	; 131
      00033C FF                     807 	.db #0xff	; 255
      00033D FF                     808 	.db #0xff	; 255
      00033E C3                     809 	.db #0xc3	; 195
      00033F C3                     810 	.db #0xc3	; 195
      000340 BD                     811 	.db #0xbd	; 189
      000341 BD                     812 	.db #0xbd	; 189
      000342 BF                     813 	.db #0xbf	; 191
      000343 BF                     814 	.db #0xbf	; 191
      000344 83                     815 	.db #0x83	; 131
      000345 83                     816 	.db #0x83	; 131
      000346 BD                     817 	.db #0xbd	; 189
      000347 BD                     818 	.db #0xbd	; 189
      000348 BD                     819 	.db #0xbd	; 189
      000349 BD                     820 	.db #0xbd	; 189
      00034A C3                     821 	.db #0xc3	; 195
      00034B C3                     822 	.db #0xc3	; 195
      00034C FF                     823 	.db #0xff	; 255
      00034D FF                     824 	.db #0xff	; 255
      00034E 81                     825 	.db #0x81	; 129
      00034F 81                     826 	.db #0x81	; 129
      000350 BD                     827 	.db #0xbd	; 189
      000351 BD                     828 	.db #0xbd	; 189
      000352 FD                     829 	.db #0xfd	; 253
      000353 FD                     830 	.db #0xfd	; 253
      000354 FB                     831 	.db #0xfb	; 251
      000355 FB                     832 	.db #0xfb	; 251
      000356 FB                     833 	.db #0xfb	; 251
      000357 FB                     834 	.db #0xfb	; 251
      000358 F7                     835 	.db #0xf7	; 247
      000359 F7                     836 	.db #0xf7	; 247
      00035A F7                     837 	.db #0xf7	; 247
      00035B F7                     838 	.db #0xf7	; 247
      00035C FF                     839 	.db #0xff	; 255
      00035D FF                     840 	.db #0xff	; 255
      00035E C3                     841 	.db #0xc3	; 195
      00035F C3                     842 	.db #0xc3	; 195
      000360 BD                     843 	.db #0xbd	; 189
      000361 BD                     844 	.db #0xbd	; 189
      000362 BD                     845 	.db #0xbd	; 189
      000363 BD                     846 	.db #0xbd	; 189
      000364 C3                     847 	.db #0xc3	; 195
      000365 C3                     848 	.db #0xc3	; 195
      000366 BD                     849 	.db #0xbd	; 189
      000367 BD                     850 	.db #0xbd	; 189
      000368 BD                     851 	.db #0xbd	; 189
      000369 BD                     852 	.db #0xbd	; 189
      00036A C3                     853 	.db #0xc3	; 195
      00036B C3                     854 	.db #0xc3	; 195
      00036C FF                     855 	.db #0xff	; 255
      00036D FF                     856 	.db #0xff	; 255
      00036E C3                     857 	.db #0xc3	; 195
      00036F C3                     858 	.db #0xc3	; 195
      000370 BD                     859 	.db #0xbd	; 189
      000371 BD                     860 	.db #0xbd	; 189
      000372 BD                     861 	.db #0xbd	; 189
      000373 BD                     862 	.db #0xbd	; 189
      000374 C1                     863 	.db #0xc1	; 193
      000375 C1                     864 	.db #0xc1	; 193
      000376 FD                     865 	.db #0xfd	; 253
      000377 FD                     866 	.db #0xfd	; 253
      000378 FD                     867 	.db #0xfd	; 253
      000379 FD                     868 	.db #0xfd	; 253
      00037A FD                     869 	.db #0xfd	; 253
      00037B FD                     870 	.db #0xfd	; 253
      00037C FF                     871 	.db #0xff	; 255
      00037D FF                     872 	.db #0xff	; 255
      00037E C3                     873 	.db #0xc3	; 195
      00037F C3                     874 	.db #0xc3	; 195
      000380 99                     875 	.db #0x99	; 153
      000381 99                     876 	.db #0x99	; 153
      000382 B9                     877 	.db #0xb9	; 185
      000383 B9                     878 	.db #0xb9	; 185
      000384 01                     879 	.db #0x01	; 1
      000385 01                     880 	.db #0x01	; 1
      000386 B9                     881 	.db #0xb9	; 185
      000387 B9                     882 	.db #0xb9	; 185
      000388 B9                     883 	.db #0xb9	; 185
      000389 B9                     884 	.db #0xb9	; 185
      00038A 99                     885 	.db #0x99	; 153
      00038B 99                     886 	.db #0x99	; 153
      00038C FF                     887 	.db #0xff	; 255
      00038D FF                     888 	.db #0xff	; 255
      00038E 01                     889 	.db #0x01	; 1
      00038F 01                     890 	.db #0x01	; 1
      000390 79                     891 	.db #0x79	; 121	'y'
      000391 79                     892 	.db #0x79	; 121	'y'
      000392 65                     893 	.db #0x65	; 101	'e'
      000393 65                     894 	.db #0x65	; 101	'e'
      000394 79                     895 	.db #0x79	; 121	'y'
      000395 79                     896 	.db #0x79	; 121	'y'
      000396 65                     897 	.db #0x65	; 101	'e'
      000397 65                     898 	.db #0x65	; 101	'e'
      000398 79                     899 	.db #0x79	; 121	'y'
      000399 79                     900 	.db #0x79	; 121	'y'
      00039A 01                     901 	.db #0x01	; 1
      00039B 01                     902 	.db #0x01	; 1
      00039C FF                     903 	.db #0xff	; 255
      00039D FF                     904 	.db #0xff	; 255
      00039E 83                     905 	.db #0x83	; 131
      00039F 83                     906 	.db #0x83	; 131
      0003A0 19                     907 	.db #0x19	; 25
      0003A1 19                     908 	.db #0x19	; 25
      0003A2 3D                     909 	.db #0x3d	; 61
      0003A3 3D                     910 	.db #0x3d	; 61
      0003A4 3F                     911 	.db #0x3f	; 63
      0003A5 3F                     912 	.db #0x3f	; 63
      0003A6 3D                     913 	.db #0x3d	; 61
      0003A7 3D                     914 	.db #0x3d	; 61
      0003A8 19                     915 	.db #0x19	; 25
      0003A9 19                     916 	.db #0x19	; 25
      0003AA 83                     917 	.db #0x83	; 131
      0003AB 83                     918 	.db #0x83	; 131
      0003AC FF                     919 	.db #0xff	; 255
      0003AD FF                     920 	.db #0xff	; 255
      0003AE 03                     921 	.db #0x03	; 3
      0003AF 03                     922 	.db #0x03	; 3
      0003B0 99                     923 	.db #0x99	; 153
      0003B1 99                     924 	.db #0x99	; 153
      0003B2 99                     925 	.db #0x99	; 153
      0003B3 99                     926 	.db #0x99	; 153
      0003B4 0D                     927 	.db #0x0d	; 13
      0003B5 0D                     928 	.db #0x0d	; 13
      0003B6 9D                     929 	.db #0x9d	; 157
      0003B7 9D                     930 	.db #0x9d	; 157
      0003B8 9D                     931 	.db #0x9d	; 157
      0003B9 9D                     932 	.db #0x9d	; 157
      0003BA 01                     933 	.db #0x01	; 1
      0003BB 01                     934 	.db #0x01	; 1
      0003BC FF                     935 	.db #0xff	; 255
      0003BD FF                     936 	.db #0xff	; 255
      0003BE 01                     937 	.db #0x01	; 1
      0003BF 01                     938 	.db #0x01	; 1
      0003C0 B9                     939 	.db #0xb9	; 185
      0003C1 B9                     940 	.db #0xb9	; 185
      0003C2 A3                     941 	.db #0xa3	; 163
      0003C3 A3                     942 	.db #0xa3	; 163
      0003C4 33                     943 	.db #0x33	; 51	'3'
      0003C5 33                     944 	.db #0x33	; 51	'3'
      0003C6 A3                     945 	.db #0xa3	; 163
      0003C7 A3                     946 	.db #0xa3	; 163
      0003C8 B9                     947 	.db #0xb9	; 185
      0003C9 B9                     948 	.db #0xb9	; 185
      0003CA 01                     949 	.db #0x01	; 1
      0003CB 01                     950 	.db #0x01	; 1
      0003CC FF                     951 	.db #0xff	; 255
      0003CD FF                     952 	.db #0xff	; 255
      0003CE 81                     953 	.db #0x81	; 129
      0003CF 81                     954 	.db #0x81	; 129
      0003D0 BD                     955 	.db #0xbd	; 189
      0003D1 BD                     956 	.db #0xbd	; 189
      0003D2 A1                     957 	.db #0xa1	; 161
      0003D3 A1                     958 	.db #0xa1	; 161
      0003D4 37                     959 	.db #0x37	; 55	'7'
      0003D5 37                     960 	.db #0x37	; 55	'7'
      0003D6 A7                     961 	.db #0xa7	; 167
      0003D7 A7                     962 	.db #0xa7	; 167
      0003D8 AF                     963 	.db #0xaf	; 175
      0003D9 AF                     964 	.db #0xaf	; 175
      0003DA 8F                     965 	.db #0x8f	; 143
      0003DB 8F                     966 	.db #0x8f	; 143
      0003DC FF                     967 	.db #0xff	; 255
      0003DD FF                     968 	.db #0xff	; 255
      0003DE 81                     969 	.db #0x81	; 129
      0003DF 81                     970 	.db #0x81	; 129
      0003E0 39                     971 	.db #0x39	; 57	'9'
      0003E1 39                     972 	.db #0x39	; 57	'9'
      0003E2 3F                     973 	.db #0x3f	; 63
      0003E3 3F                     974 	.db #0x3f	; 63
      0003E4 21                     975 	.db #0x21	; 33
      0003E5 21                     976 	.db #0x21	; 33
      0003E6 39                     977 	.db #0x39	; 57	'9'
      0003E7 39                     978 	.db #0x39	; 57	'9'
      0003E8 39                     979 	.db #0x39	; 57	'9'
      0003E9 39                     980 	.db #0x39	; 57	'9'
      0003EA 81                     981 	.db #0x81	; 129
      0003EB 81                     982 	.db #0x81	; 129
      0003EC FF                     983 	.db #0xff	; 255
      0003ED FF                     984 	.db #0xff	; 255
      0003EE 11                     985 	.db #0x11	; 17
      0003EF 11                     986 	.db #0x11	; 17
      0003F0 99                     987 	.db #0x99	; 153
      0003F1 99                     988 	.db #0x99	; 153
      0003F2 99                     989 	.db #0x99	; 153
      0003F3 99                     990 	.db #0x99	; 153
      0003F4 01                     991 	.db #0x01	; 1
      0003F5 01                     992 	.db #0x01	; 1
      0003F6 99                     993 	.db #0x99	; 153
      0003F7 99                     994 	.db #0x99	; 153
      0003F8 99                     995 	.db #0x99	; 153
      0003F9 99                     996 	.db #0x99	; 153
      0003FA 11                     997 	.db #0x11	; 17
      0003FB 11                     998 	.db #0x11	; 17
      0003FC FF                     999 	.db #0xff	; 255
      0003FD FF                    1000 	.db #0xff	; 255
      0003FE 01                    1001 	.db #0x01	; 1
      0003FF 01                    1002 	.db #0x01	; 1
      000400 BB                    1003 	.db #0xbb	; 187
      000401 BB                    1004 	.db #0xbb	; 187
      000402 D7                    1005 	.db #0xd7	; 215
      000403 D7                    1006 	.db #0xd7	; 215
      000404 D7                    1007 	.db #0xd7	; 215
      000405 D7                    1008 	.db #0xd7	; 215
      000406 D7                    1009 	.db #0xd7	; 215
      000407 D7                    1010 	.db #0xd7	; 215
      000408 BB                    1011 	.db #0xbb	; 187
      000409 BB                    1012 	.db #0xbb	; 187
      00040A 01                    1013 	.db #0x01	; 1
      00040B 01                    1014 	.db #0x01	; 1
      00040C FF                    1015 	.db #0xff	; 255
      00040D FF                    1016 	.db #0xff	; 255
      00040E F1                    1017 	.db #0xf1	; 241
      00040F F1                    1018 	.db #0xf1	; 241
      000410 F5                    1019 	.db #0xf5	; 245
      000411 F5                    1020 	.db #0xf5	; 245
      000412 F5                    1021 	.db #0xf5	; 245
      000413 F5                    1022 	.db #0xf5	; 245
      000414 95                    1023 	.db #0x95	; 149
      000415 95                    1024 	.db #0x95	; 149
      000416 6D                    1025 	.db #0x6d	; 109	'm'
      000417 6D                    1026 	.db #0x6d	; 109	'm'
      000418 BB                    1027 	.db #0xbb	; 187
      000419 BB                    1028 	.db #0xbb	; 187
      00041A C7                    1029 	.db #0xc7	; 199
      00041B C7                    1030 	.db #0xc7	; 199
      00041C FF                    1031 	.db #0xff	; 255
      00041D FF                    1032 	.db #0xff	; 255
      00041E 39                    1033 	.db #0x39	; 57	'9'
      00041F 39                    1034 	.db #0x39	; 57	'9'
      000420 B3                    1035 	.db #0xb3	; 179
      000421 B3                    1036 	.db #0xb3	; 179
      000422 87                    1037 	.db #0x87	; 135
      000423 87                    1038 	.db #0x87	; 135
      000424 8F                    1039 	.db #0x8f	; 143
      000425 8F                    1040 	.db #0x8f	; 143
      000426 A7                    1041 	.db #0xa7	; 167
      000427 A7                    1042 	.db #0xa7	; 167
      000428 33                    1043 	.db #0x33	; 51	'3'
      000429 33                    1044 	.db #0x33	; 51	'3'
      00042A 39                    1045 	.db #0x39	; 57	'9'
      00042B 39                    1046 	.db #0x39	; 57	'9'
      00042C FF                    1047 	.db #0xff	; 255
      00042D FF                    1048 	.db #0xff	; 255
      00042E 03                    1049 	.db #0x03	; 3
      00042F 03                    1050 	.db #0x03	; 3
      000430 43                    1051 	.db #0x43	; 67	'C'
      000431 43                    1052 	.db #0x43	; 67	'C'
      000432 43                    1053 	.db #0x43	; 67	'C'
      000433 43                    1054 	.db #0x43	; 67	'C'
      000434 43                    1055 	.db #0x43	; 67	'C'
      000435 43                    1056 	.db #0x43	; 67	'C'
      000436 43                    1057 	.db #0x43	; 67	'C'
      000437 43                    1058 	.db #0x43	; 67	'C'
      000438 7B                    1059 	.db #0x7b	; 123
      000439 7B                    1060 	.db #0x7b	; 123
      00043A 03                    1061 	.db #0x03	; 3
      00043B 03                    1062 	.db #0x03	; 3
      00043C FF                    1063 	.db #0xff	; 255
      00043D FF                    1064 	.db #0xff	; 255
      00043E 03                    1065 	.db #0x03	; 3
      00043F 03                    1066 	.db #0x03	; 3
      000440 69                    1067 	.db #0x69	; 105	'i'
      000441 69                    1068 	.db #0x69	; 105	'i'
      000442 55                    1069 	.db #0x55	; 85	'U'
      000443 55                    1070 	.db #0x55	; 85	'U'
      000444 55                    1071 	.db #0x55	; 85	'U'
      000445 55                    1072 	.db #0x55	; 85	'U'
      000446 45                    1073 	.db #0x45	; 69	'E'
      000447 45                    1074 	.db #0x45	; 69	'E'
      000448 55                    1075 	.db #0x55	; 85	'U'
      000449 55                    1076 	.db #0x55	; 85	'U'
      00044A 11                    1077 	.db #0x11	; 17
      00044B 11                    1078 	.db #0x11	; 17
      00044C FF                    1079 	.db #0xff	; 255
      00044D FF                    1080 	.db #0xff	; 255
      00044E 39                    1081 	.db #0x39	; 57	'9'
      00044F 39                    1082 	.db #0x39	; 57	'9'
      000450 19                    1083 	.db #0x19	; 25
      000451 19                    1084 	.db #0x19	; 25
      000452 AD                    1085 	.db #0xad	; 173
      000453 AD                    1086 	.db #0xad	; 173
      000454 AD                    1087 	.db #0xad	; 173
      000455 AD                    1088 	.db #0xad	; 173
      000456 B5                    1089 	.db #0xb5	; 181
      000457 B5                    1090 	.db #0xb5	; 181
      000458 31                    1091 	.db #0x31	; 49	'1'
      000459 31                    1092 	.db #0x31	; 49	'1'
      00045A 39                    1093 	.db #0x39	; 57	'9'
      00045B 39                    1094 	.db #0x39	; 57	'9'
      00045C FF                    1095 	.db #0xff	; 255
      00045D FF                    1096 	.db #0xff	; 255
      00045E 81                    1097 	.db #0x81	; 129
      00045F 81                    1098 	.db #0x81	; 129
      000460 7D                    1099 	.db #0x7d	; 125
      000461 7D                    1100 	.db #0x7d	; 125
      000462 4D                    1101 	.db #0x4d	; 77	'M'
      000463 4D                    1102 	.db #0x4d	; 77	'M'
      000464 55                    1103 	.db #0x55	; 85	'U'
      000465 55                    1104 	.db #0x55	; 85	'U'
      000466 65                    1105 	.db #0x65	; 101	'e'
      000467 65                    1106 	.db #0x65	; 101	'e'
      000468 7D                    1107 	.db #0x7d	; 125
      000469 7D                    1108 	.db #0x7d	; 125
      00046A 03                    1109 	.db #0x03	; 3
      00046B 03                    1110 	.db #0x03	; 3
      00046C FF                    1111 	.db #0xff	; 255
      00046D FF                    1112 	.db #0xff	; 255
      00046E 03                    1113 	.db #0x03	; 3
      00046F 03                    1114 	.db #0x03	; 3
      000470 99                    1115 	.db #0x99	; 153
      000471 99                    1116 	.db #0x99	; 153
      000472 09                    1117 	.db #0x09	; 9
      000473 09                    1118 	.db #0x09	; 9
      000474 99                    1119 	.db #0x99	; 153
      000475 99                    1120 	.db #0x99	; 153
      000476 83                    1121 	.db #0x83	; 131
      000477 83                    1122 	.db #0x83	; 131
      000478 9F                    1123 	.db #0x9f	; 159
      000479 9F                    1124 	.db #0x9f	; 159
      00047A 0F                    1125 	.db #0x0f	; 15
      00047B 0F                    1126 	.db #0x0f	; 15
      00047C FF                    1127 	.db #0xff	; 255
      00047D FF                    1128 	.db #0xff	; 255
      00047E 83                    1129 	.db #0x83	; 131
      00047F 83                    1130 	.db #0x83	; 131
      000480 39                    1131 	.db #0x39	; 57	'9'
      000481 39                    1132 	.db #0x39	; 57	'9'
      000482 7D                    1133 	.db #0x7d	; 125
      000483 7D                    1134 	.db #0x7d	; 125
      000484 69                    1135 	.db #0x69	; 105	'i'
      000485 69                    1136 	.db #0x69	; 105	'i'
      000486 71                    1137 	.db #0x71	; 113	'q'
      000487 71                    1138 	.db #0x71	; 113	'q'
      000488 23                    1139 	.db #0x23	; 35
      000489 23                    1140 	.db #0x23	; 35
      00048A 85                    1141 	.db #0x85	; 133
      00048B 85                    1142 	.db #0x85	; 133
      00048C FF                    1143 	.db #0xff	; 255
      00048D FF                    1144 	.db #0xff	; 255
      00048E 03                    1145 	.db #0x03	; 3
      00048F 03                    1146 	.db #0x03	; 3
      000490 99                    1147 	.db #0x99	; 153
      000491 99                    1148 	.db #0x99	; 153
      000492 99                    1149 	.db #0x99	; 153
      000493 99                    1150 	.db #0x99	; 153
      000494 83                    1151 	.db #0x83	; 131
      000495 83                    1152 	.db #0x83	; 131
      000496 9B                    1153 	.db #0x9b	; 155
      000497 9B                    1154 	.db #0x9b	; 155
      000498 99                    1155 	.db #0x99	; 153
      000499 99                    1156 	.db #0x99	; 153
      00049A 19                    1157 	.db #0x19	; 25
      00049B 19                    1158 	.db #0x19	; 25
      00049C FF                    1159 	.db #0xff	; 255
      00049D FF                    1160 	.db #0xff	; 255
      00049E 01                    1161 	.db #0x01	; 1
      00049F 01                    1162 	.db #0x01	; 1
      0004A0 3D                    1163 	.db #0x3d	; 61
      0004A1 3D                    1164 	.db #0x3d	; 61
      0004A2 41                    1165 	.db #0x41	; 65	'A'
      0004A3 41                    1166 	.db #0x41	; 65	'A'
      0004A4 39                    1167 	.db #0x39	; 57	'9'
      0004A5 39                    1168 	.db #0x39	; 57	'9'
      0004A6 05                    1169 	.db #0x05	; 5
      0004A7 05                    1170 	.db #0x05	; 5
      0004A8 79                    1171 	.db #0x79	; 121	'y'
      0004A9 79                    1172 	.db #0x79	; 121	'y'
      0004AA 01                    1173 	.db #0x01	; 1
      0004AB 01                    1174 	.db #0x01	; 1
      0004AC FF                    1175 	.db #0xff	; 255
      0004AD FF                    1176 	.db #0xff	; 255
      0004AE 01                    1177 	.db #0x01	; 1
      0004AF 01                    1178 	.db #0x01	; 1
      0004B0 7D                    1179 	.db #0x7d	; 125
      0004B1 7D                    1180 	.db #0x7d	; 125
      0004B2 55                    1181 	.db #0x55	; 85	'U'
      0004B3 55                    1182 	.db #0x55	; 85	'U'
      0004B4 11                    1183 	.db #0x11	; 17
      0004B5 11                    1184 	.db #0x11	; 17
      0004B6 11                    1185 	.db #0x11	; 17
      0004B7 11                    1186 	.db #0x11	; 17
      0004B8 11                    1187 	.db #0x11	; 17
      0004B9 11                    1188 	.db #0x11	; 17
      0004BA 01                    1189 	.db #0x01	; 1
      0004BB 01                    1190 	.db #0x01	; 1
      0004BC FF                    1191 	.db #0xff	; 255
      0004BD FF                    1192 	.db #0xff	; 255
      0004BE 19                    1193 	.db #0x19	; 25
      0004BF 19                    1194 	.db #0x19	; 25
      0004C0 99                    1195 	.db #0x99	; 153
      0004C1 99                    1196 	.db #0x99	; 153
      0004C2 9D                    1197 	.db #0x9d	; 157
      0004C3 9D                    1198 	.db #0x9d	; 157
      0004C4 99                    1199 	.db #0x99	; 153
      0004C5 99                    1200 	.db #0x99	; 153
      0004C6 95                    1201 	.db #0x95	; 149
      0004C7 95                    1202 	.db #0x95	; 149
      0004C8 AD                    1203 	.db #0xad	; 173
      0004C9 AD                    1204 	.db #0xad	; 173
      0004CA C1                    1205 	.db #0xc1	; 193
      0004CB C1                    1206 	.db #0xc1	; 193
      0004CC FF                    1207 	.db #0xff	; 255
      0004CD FF                    1208 	.db #0xff	; 255
      0004CE 19                    1209 	.db #0x19	; 25
      0004CF 19                    1210 	.db #0x19	; 25
      0004D0 99                    1211 	.db #0x99	; 153
      0004D1 99                    1212 	.db #0x99	; 153
      0004D2 99                    1213 	.db #0x99	; 153
      0004D3 99                    1214 	.db #0x99	; 153
      0004D4 9B                    1215 	.db #0x9b	; 155
      0004D5 9B                    1216 	.db #0x9b	; 155
      0004D6 D3                    1217 	.db #0xd3	; 211
      0004D7 D3                    1218 	.db #0xd3	; 211
      0004D8 C7                    1219 	.db #0xc7	; 199
      0004D9 C7                    1220 	.db #0xc7	; 199
      0004DA EF                    1221 	.db #0xef	; 239
      0004DB EF                    1222 	.db #0xef	; 239
      0004DC FF                    1223 	.db #0xff	; 255
      0004DD FF                    1224 	.db #0xff	; 255
      0004DE 39                    1225 	.db #0x39	; 57	'9'
      0004DF 39                    1226 	.db #0x39	; 57	'9'
      0004E0 39                    1227 	.db #0x39	; 57	'9'
      0004E1 39                    1228 	.db #0x39	; 57	'9'
      0004E2 BD                    1229 	.db #0xbd	; 189
      0004E3 BD                    1230 	.db #0xbd	; 189
      0004E4 A5                    1231 	.db #0xa5	; 165
      0004E5 A5                    1232 	.db #0xa5	; 165
      0004E6 A5                    1233 	.db #0xa5	; 165
      0004E7 A5                    1234 	.db #0xa5	; 165
      0004E8 81                    1235 	.db #0x81	; 129
      0004E9 81                    1236 	.db #0x81	; 129
      0004EA 99                    1237 	.db #0x99	; 153
      0004EB 99                    1238 	.db #0x99	; 153
      0004EC FF                    1239 	.db #0xff	; 255
      0004ED FF                    1240 	.db #0xff	; 255
      0004EE 39                    1241 	.db #0x39	; 57	'9'
      0004EF 39                    1242 	.db #0x39	; 57	'9'
      0004F0 BB                    1243 	.db #0xbb	; 187
      0004F1 BB                    1244 	.db #0xbb	; 187
      0004F2 D7                    1245 	.db #0xd7	; 215
      0004F3 D7                    1246 	.db #0xd7	; 215
      0004F4 01                    1247 	.db #0x01	; 1
      0004F5 01                    1248 	.db #0x01	; 1
      0004F6 D7                    1249 	.db #0xd7	; 215
      0004F7 D7                    1250 	.db #0xd7	; 215
      0004F8 BB                    1251 	.db #0xbb	; 187
      0004F9 BB                    1252 	.db #0xbb	; 187
      0004FA 39                    1253 	.db #0x39	; 57	'9'
      0004FB 39                    1254 	.db #0x39	; 57	'9'
      0004FC FF                    1255 	.db #0xff	; 255
      0004FD FF                    1256 	.db #0xff	; 255
      0004FE E7                    1257 	.db #0xe7	; 231
      0004FF E7                    1258 	.db #0xe7	; 231
      000500 EF                    1259 	.db #0xef	; 239
      000501 EF                    1260 	.db #0xef	; 239
      000502 01                    1261 	.db #0x01	; 1
      000503 01                    1262 	.db #0x01	; 1
      000504 83                    1263 	.db #0x83	; 131
      000505 83                    1264 	.db #0x83	; 131
      000506 C7                    1265 	.db #0xc7	; 199
      000507 C7                    1266 	.db #0xc7	; 199
      000508 EF                    1267 	.db #0xef	; 239
      000509 EF                    1268 	.db #0xef	; 239
      00050A C7                    1269 	.db #0xc7	; 199
      00050B C7                    1270 	.db #0xc7	; 199
      00050C FF                    1271 	.db #0xff	; 255
      00050D FF                    1272 	.db #0xff	; 255
      00050E 01                    1273 	.db #0x01	; 1
      00050F 01                    1274 	.db #0x01	; 1
      000510 7D                    1275 	.db #0x7d	; 125
      000511 7D                    1276 	.db #0x7d	; 125
      000512 49                    1277 	.db #0x49	; 73	'I'
      000513 49                    1278 	.db #0x49	; 73	'I'
      000514 11                    1279 	.db #0x11	; 17
      000515 11                    1280 	.db #0x11	; 17
      000516 25                    1281 	.db #0x25	; 37
      000517 25                    1282 	.db #0x25	; 37
      000518 7D                    1283 	.db #0x7d	; 125
      000519 7D                    1284 	.db #0x7d	; 125
      00051A 01                    1285 	.db #0x01	; 1
      00051B 01                    1286 	.db #0x01	; 1
      00051C FF                    1287 	.db #0xff	; 255
      00051D FF                    1288 	.db #0xff	; 255
                                   1289 	.area _CODE
                                   1290 	.area _INITIALIZER
      000000                       1291 __xinit__previous_keys:
      000000 00                    1292 	.db #0x00	; 0
      000001                       1293 __xinit__keys:
      000001 00                    1294 	.db #0x00	; 0
      000002                       1295 __xinit__DIALOG_DELAY:
      000002 01                    1296 	.db #0x01	; 1
                                   1297 	.area _CABS (ABS)
